00080000 N _stack
02000000 A __eheap_start
02000000 A __end__
02000000 A __ewram_end
02000000 D __ewram_start
02000000 A __sbss_end__
02000000 A __sbss_start__
02040000 T __eheap_end
03000000 A __bss_start
03000000 A __bss_start__
03000000 A __iwram_end__
03000000 T __iwram_start
03000000 A __iwram_start__
03000000 b completed.1
03000004 b object.0
03000020 0000001c b _ZN12_GLOBAL__N_114emergency_poolE
0300003c 00000004 b _ZL4init
03000040 00000001 B _ZN17__eh_globals_init7_S_initE
03000044 0000000c b _ZN12_GLOBAL__N_110eh_globalsE
03000050 00000010 b _ZN12_GLOBAL__N_12mxE
03000060 00000004 b _ZN12_GLOBAL__N_113__new_handlerE
03000064 00000010 b _ZN12_GLOBAL__N_12mxE
03000074 00000010 V _ZNSs4_Rep20_S_empty_rep_storageE
03000084 00000004 b _ZGVZN12_GLOBAL__N_116get_atomic_mutexEvE12atomic_mutex
03000088 00000010 b _ZZN12_GLOBAL__N_116get_atomic_mutexEvE12atomic_mutex
03000098 00000004 b _ZZN12_GLOBAL__N_115get_static_condEvE4once
030000a0 00000008 b _ZN12_GLOBAL__N_19fake_condE
030000a8 00000004 b _ZN12_GLOBAL__N_1L11static_condE
030000ac 00000004 b _ZZN12_GLOBAL__N_116get_static_mutexEvE4once
030000b0 00000010 b _ZN12_GLOBAL__N_110fake_mutexE
030000c0 00000004 b _ZN12_GLOBAL__N_1L12static_mutexE
030000c4 00000028 B __malloc_current_mallinfo
030000ec 00000004 B __malloc_max_total_mem
030000f0 00000004 B __malloc_max_sbrked_mem
030000f4 00000004 B __malloc_top_pad
030000f8 0000000c b __malloc_recursive_mutex
03000104 00000004 b initial_env
03000108 0000000c b __env_recursive_mutex
03000114 0000000c b __sfp_recursive_mutex
03000120 00000168 B __sf
03000288 00000004 B __stdio_exit_handler
0300028c 00000004 b __hndl_lock
03000290 00000004 B fake_heap_start
03000294 00000004 B fake_heap_end
03000298 00000004 b heap_start.0
0300029c A __bss_end__
0300029c A __data_start__
0300029c 00000004 D _ZN10__cxxabiv120__unexpected_handlerE
030002a0 00000004 D _ZN10__cxxabiv119__terminate_handlerE
030002a4 00000004 D __malloc_sbrk_base
030002a8 00000004 D __malloc_trim_threshold
030002b0 00000408 D __malloc_av_
030006b8 00000004 D environ
030006bc 0000000c D __sglue
030006c8 0000016c D __global_locale
03000834 00000004 D _impure_ptr
03000838 00000120 D _impure_data
03000958 00001000 d handles
03001958 0000000c d __stderr_handle
03001964 0000000c d __stdout_handle
03001970 0000000c d __stdin_handle
0300197c 0000008c D devoptab_list
03001a08 d __frame_dummy_init_array_entry
03001a08 A __init_array_start
03001a08 A __preinit_array_end
03001a08 A __preinit_array_start
03001a1c d __do_global_dtors_aux_fini_array_entry
03001a1c A __fini_array_start
03001a1c A __init_array_end
03001a24 A __data_end__
03001a24 A __fini_array_end
03001a24 D __iheap_start
03001a24 D __iwram_overlay_end
03001a24 D __iwram_overlay_start
03007f00 A __sp_usr
03007fa0 A __sp_irq
03007ff8 A __irq_flags
03008000 T __iwram_top
08000000 T __text_start
08000000 T _start
080000c0 t rom_header_end
080000c4 T __boot_method
080000c5 T __slave_number
080000e0 T start_vector
08000126 t DoEWRAMClear
08000130 t SkipEWRAMClear
08000166 t CIW0Skip
08000170 t CEW0Skip
08000188 t ClearMem
08000192 t ClrLoop
08000198 t ClearMX
0800019a t _blx_r3_stub
0800019c t CopyMemChk
0800019e t CopyMem
080001a6 t CIDLoop
080001ae t CIDExit
08000210 T _init
08000220 t __do_global_dtors_aux
0800024c t frame_dummy
08000270 000000b0 T _ZN7DisplayC1Ev
08000270 000000b0 T _ZN7DisplayC2Ev
08000320 000000cc T _ZN7Display10LoadSpriteESt6vectorIPK5AssetISt4spanIKmLj4294967295EEESaIS7_EERKS1_ISt5arrayImLj8EEEl
080003ec 00000058 W _ZNKSt6vectorIlSaIlEE12_M_check_lenEjPKc
08000444 00000010 W _ZNSt15__new_allocatorIlE10deallocateEPlj
08000454 0000001c W _ZNSt12_Vector_baseIlSaIlEED1Ev
08000454 0000001c W _ZNSt12_Vector_baseIlSaIlEED2Ev
08000470 0000002c W _ZNSt15__new_allocatorIlE8allocateEjPKv
0800049c 00000022 W _ZNSt12_Vector_baseIlSaIlEE17_M_create_storageEj
080004c0 000000a4 W _ZNSt6vectorIlSaIlEE17_M_realloc_insertIJRKlEEEvN9__gnu_cxx17__normal_iteratorIPlS1_EEDpOT_
08000564 00000024 W _ZNSt6vectorIlSaIlEE9push_backERKl
08000588 0000002e W _ZNSt11__copy_moveILb0ELb1ESt26random_access_iterator_tagE8__copy_mIKllEEPT0_PT_S7_S5_
080005b6 0000000c W _ZSt13__copy_move_aILb0EN9__gnu_cxx17__normal_iteratorIPKlSt6vectorIlSaIlEEEEPlET1_T0_SA_S9_
080005c2 0000000c W _ZSt4copyIN9__gnu_cxx17__normal_iteratorIPKlSt6vectorIlSaIlEEEEPlET0_T_SA_S9_
080005ce 0000000c W _ZSt18uninitialized_copyIN9__gnu_cxx17__normal_iteratorIPKlSt6vectorIlSaIlEEEEPlET0_T_SA_S9_
080005da 0000002e W _ZNSt6vectorIlSaIlEEC1ERKS1_
080005da 0000002e W _ZNSt6vectorIlSaIlEEC2ERKS1_
08000608 0000000c T _ZNK5Input9IsKeyDownE8InputKey
08000614 0000006c T _ZN5Input4TickEv
08000680 0000000a T _ZNK5Input7IsKeyUpE8InputKey
0800068a 00000004 T _ZNK5Input12GetDPadInputEv
08000690 00000154 T main
080007e4 00000012 W _ZN7Point2DpLERK8Vector2D
080007f6 0000002a W _ZN5Actor4TickEl
08000820 0000002c W _ZNSt15__new_allocatorIPK5AssetISt4spanIKmLj4294967295EEEE8allocateEjPKv
0800084c 00000048 W _ZNSt23mersenne_twister_engineIjLj32ELj624ELj397ELj31ELj2567483615ELj11ELj4294967295ELj7ELj2636928640ELj15ELj4022730752ELj18ELj1812433253EE4seedEj
08000894 00000010 W _ZNSt15__new_allocatorIPK5AssetISt4spanIKmLj4294967295EEEE10deallocateEPS6_j
080008a4 0000001c W _ZNSt12_Vector_baseIPK5AssetISt4spanIKmLj4294967295EEESaIS6_EED1Ev
080008a4 0000001c W _ZNSt12_Vector_baseIPK5AssetISt4spanIKmLj4294967295EEESaIS6_EED2Ev
080008c0 0000002e W _ZNSt11__copy_moveILb0ELb1ESt26random_access_iterator_tagE8__copy_mIKPK5AssetISt4spanIKmLj4294967295EEES9_EEPT0_PT_SE_SC_
080008f0 00000048 W _ZNSt6vectorIPK5AssetISt4spanIKmLj4294967295EEESaIS6_EE19_M_range_initializeIPKS6_EEvT_SC_St20forward_iterator_tag
08000938 00000024 W _ZNSt6vectorIPK5AssetISt4spanIKmLj4294967295EEESaIS6_EEC1ESt16initializer_listIS6_ERKS7_
0800095c 0000002a W _ZN6SpriteC1ERKS_
0800095c 0000002a W _ZN6SpriteC2ERKS_
08000986 0000006a T _ZN14PaletteManager12AddToPaletteERK5AssetISt5arrayImLj8EEE
080009f0 0000002e T _ZN14PaletteManager17RemoveFromPaletteEl
08000a1e 0000004e T _ZN14PaletteManagerC1EPv
08000a1e 0000004e T _ZN14PaletteManagerC2EPv
08000a6c 0000001e W _ZNSt10unique_ptrISt5arrayIS0_ImLj8EELj16EESt14default_deleteIS2_EED1Ev
08000a6c 0000001e W _ZNSt10unique_ptrISt5arrayIS0_ImLj8EELj16EESt14default_deleteIS2_EED2Ev
08000a8a 00000022 W _ZNSt15__uniq_ptr_implISt5arrayIS0_ImLj8EELj16EESt14default_deleteIS2_EEaSEOS5_
08000aac 0000001e T _ZN6Sprite11SetPositionERK7Point2D
08000aca 0000003e T _ZN6Sprite4TickEl
08000b08 00000036 T _ZN6SpriteD1Ev
08000b08 00000036 T _ZN6SpriteD2Ev
08000b3e 0000008a T _ZN6SpriteC1ER13SpriteManagerR16ObjectAttributesSt6vectorIlSaIlEEll
08000b3e 0000008a T _ZN6SpriteC2ER13SpriteManagerR16ObjectAttributesSt6vectorIlSaIlEEll
08000bc8 0000001e t _ZNKSt6ranges12__find_if_fnclIRSt6vectorIN13SpriteManager7TileGapESaIS4_EESt8identityZNS3_15FindSuitableGapElEUlRKT_E_EENSt13__conditionalIX14borrowed_rangeIS9_EEE4typeIDTcl7__begincl7declvalIRS9_EEEENS_8danglingEEEOS9_T1_T0_
08000be6 00000018 T _ZN13SpriteManager4TickEv
08000bfe 0000001e T _ZN13SpriteManager15FindSuitableGapEl
08000c1c 0000000c T _ZN13SpriteManager12AddToPaletteERK5AssetISt5arrayImLj8EEE
08000c28 0000000c T _ZN13SpriteManager17RemoveFromPaletteEl
08000c34 00000030 T _ZN13SpriteManager10RequestOAMEv
08000c64 000000dc T _ZN13SpriteManagerC1EPv
08000c64 000000dc T _ZN13SpriteManagerC2EPv
08000d40 00000026 T _ZN13SpriteManager10ReleaseOAMER16ObjectAttributes
08000d66 0000006a T _ZN13SpriteManager9MergeGapsEv
08000dd0 00000108 T _ZN13SpriteManager9LoadTilesERK5AssetISt4spanIKmLj4294967295EEE
08000ed8 000000cc T _ZN13SpriteManager11UnloadTilesEl
08000fa4 00000006 W _ZNK13SpriteManager14SpriteTileData12GetTileIndexEv
08000faa 0000001e W _ZNSt10unique_ptrISt5arrayImLj8192EESt14default_deleteIS1_EED1Ev
08000faa 0000001e W _ZNSt10unique_ptrISt5arrayImLj8192EESt14default_deleteIS1_EED2Ev
08000fc8 00000022 W _ZNSt15__uniq_ptr_implISt5arrayImLj8192EESt14default_deleteIS1_EEaSEOS4_
08000fea 00000020 W _ZNKSt6ranges9__find_fnclIRSt6vectorIN13SpriteManager14SpriteTileDataESaIS4_EElMS4_lEENSt13__conditionalIX14borrowed_rangeIT_EEE4typeIDTcl7__begincl7declvalIRSA_EEEENS_8danglingEEEOSA_RKT0_T1_
0800100a 00000028 W _ZNKSt6ranges9__copy_fnclIN9__gnu_cxx17__normal_iteratorIPKmSt4spanIS4_Lj4294967295EEEES8_PmEENS_13in_out_resultIT_T1_EESB_T0_SC_
08001032 00000024 W _ZNKSt6ranges9__copy_fnclIRKSt4spanIKmLj4294967295EEPmEENS_13in_out_resultINSt13__conditionalIX14borrowed_rangeIT_EEE4typeIDTcl7__begincl7declvalIRSA_EEEENS_8danglingEEET0_EEOSA_SH_
08001058 00000058 W _ZNKSt6vectorIN13SpriteManager14SpriteTileDataESaIS1_EE12_M_check_lenEjPKc
080010b0 00000006 W _ZNSt6vectorIN13SpriteManager14SpriteTileDataESaIS1_EE4backEv
080010b8 00000058 W _ZNKSt6vectorIN13SpriteManager7TileGapESaIS1_EE12_M_check_lenEjPKc
08001110 00000006 W _ZNSt6vectorIN13SpriteManager7TileGapESaIS1_EE4backEv
08001116 00000006 W _ZNSt6vectorIP16ObjectAttributesSaIS1_EE4backEv
0800111c 00000058 W _ZNKSt6vectorIP16ObjectAttributesSaIS1_EE12_M_check_lenEjPKc
08001174 00000024 W _ZSt13__invoke_implIlRMN13SpriteManager14SpriteTileDataEKFlvERS1_JEET_St19__invoke_memfun_refOT0_OT1_DpOT2_
08001198 00000028 W _ZNKSt6ranges9__find_fnclIN9__gnu_cxx17__normal_iteratorIPN13SpriteManager14SpriteTileDataESt6vectorIS5_SaIS5_EEEESA_lMS5_KFlvEEET_SD_T0_RKT1_T2_
080011c0 00000028 W _ZNKSt6ranges9__find_fnclIRSt6vectorIN13SpriteManager14SpriteTileDataESaIS4_EElMS4_KFlvEEENSt13__conditionalIX14borrowed_rangeIT_EEE4typeIDTcl7__begincl7declvalIRSB_EEEENS_8danglingEEEOSB_RKT0_T1_
080011e8 00000010 W _ZNSt15__new_allocatorIN13SpriteManager14SpriteTileDataEE10deallocateEPS1_j
080011f8 00000010 W _ZNSt15__new_allocatorIN13SpriteManager7TileGapEE10deallocateEPS1_j
08001208 00000010 W _ZNSt15__new_allocatorIP16ObjectAttributesE10deallocateEPS1_j
08001218 0000002c W _ZNSt15__new_allocatorIN13SpriteManager14SpriteTileDataEE8allocateEjPKv
08001244 0000002c W _ZNSt15__new_allocatorIN13SpriteManager7TileGapEE8allocateEjPKv
08001270 0000003c W _ZSt25__unguarded_linear_insertIN9__gnu_cxx17__normal_iteratorIPN13SpriteManager7TileGapESt6vectorIS3_SaIS3_EEEENS0_5__ops14_Val_comp_iterIZNSt6ranges8__detail16__make_comp_projINSB_4lessEMS3_lEEDaRT_RT0_EUlOSG_OSI_E_EEEvSG_SI_
080012ac 00000038 W _ZSt26__unguarded_insertion_sortIN9__gnu_cxx17__normal_iteratorIPN13SpriteManager7TileGapESt6vectorIS3_SaIS3_EEEENS0_5__ops15_Iter_comp_iterIZNSt6ranges8__detail16__make_comp_projINSB_4lessEMS3_lEEDaRT_RT0_EUlOSG_OSI_E_EEEvSG_SG_SI_
080012e4 00000030 W _ZNSt11__copy_moveILb1ELb1ESt26random_access_iterator_tagE8__copy_mIN13SpriteManager7TileGapES4_EEPT0_PT_S8_S6_
08001314 0000000c W _ZSt13__copy_move_aILb1EN9__gnu_cxx17__normal_iteratorIPN13SpriteManager7TileGapESt6vectorIS3_SaIS3_EEEES8_ET1_T0_SA_S9_
08001320 0000000c W _ZSt4moveIN9__gnu_cxx17__normal_iteratorIPN13SpriteManager7TileGapESt6vectorIS3_SaIS3_EEEES8_ET0_T_SA_S9_
0800132c 00000024 W _ZNSt6vectorIN13SpriteManager7TileGapESaIS1_EE8_M_eraseEN9__gnu_cxx17__normal_iteratorIPS1_S3_EE
08001350 0000000c W _ZNSt6vectorIN13SpriteManager7TileGapESaIS1_EE5eraseEN9__gnu_cxx17__normal_iteratorIPKS1_S3_EE
0800135c 00000034 W _ZNSt11__copy_moveILb1ELb1ESt26random_access_iterator_tagE8__copy_mIN13SpriteManager14SpriteTileDataES4_EEPT0_PT_S8_S6_
08001390 0000000c W _ZSt13__copy_move_aILb1EN9__gnu_cxx17__normal_iteratorIPN13SpriteManager14SpriteTileDataESt6vectorIS3_SaIS3_EEEES8_ET1_T0_SA_S9_
0800139c 0000000c W _ZSt4moveIN9__gnu_cxx17__normal_iteratorIPN13SpriteManager14SpriteTileDataESt6vectorIS3_SaIS3_EEEES8_ET0_T_SA_S9_
080013a8 00000024 W _ZNSt6vectorIN13SpriteManager14SpriteTileDataESaIS1_EE8_M_eraseEN9__gnu_cxx17__normal_iteratorIPS1_S3_EE
080013cc 0000000c W _ZNSt6vectorIN13SpriteManager14SpriteTileDataESaIS1_EE5eraseEN9__gnu_cxx17__normal_iteratorIPKS1_S3_EE
080013d8 0000002c W _ZNSt15__new_allocatorIP16ObjectAttributesE8allocateEjPKv
08001404 000000a4 W _ZNSt6vectorIP16ObjectAttributesSaIS1_EE17_M_realloc_insertIJS1_EEEvN9__gnu_cxx17__normal_iteratorIPS1_S3_EEDpOT_
080014a8 0000002c W _ZNSt6vectorIP16ObjectAttributesSaIS1_EE12emplace_backIJS1_EEERS1_DpOT_
080014d4 00000012 W _ZSt12construct_atIN13SpriteManager14SpriteTileDataEJS1_EEDTgsnwcvPvLi0E_T_pispcl7declvalIT0_EEEEPS3_DpOS4_
080014e8 000000c4 W _ZNSt6vectorIN13SpriteManager14SpriteTileDataESaIS1_EE17_M_realloc_insertIJiRKlRlRjEEEvN9__gnu_cxx17__normal_iteratorIPS1_S3_EEDpOT_
080015ac 00000048 W _ZNSt6vectorIN13SpriteManager14SpriteTileDataESaIS1_EE12emplace_backIJiRKlRlRjEEERS1_DpOT_
080015f4 000000c4 W _ZNSt6vectorIN13SpriteManager14SpriteTileDataESaIS1_EE17_M_realloc_insertIJiRKlRiRjEEEvN9__gnu_cxx17__normal_iteratorIPS1_S3_EEDpOT_
080016b8 00000048 W _ZNSt6vectorIN13SpriteManager14SpriteTileDataESaIS1_EE12emplace_backIJiRKlRiRjEEERS1_DpOT_
08001700 0000000e W _ZSt12construct_atIN13SpriteManager7TileGapEJS1_EEDTgsnwcvPvLi0E_T_pispcl7declvalIT0_EEEEPS3_DpOS4_
08001710 000000b8 W _ZNSt6vectorIN13SpriteManager7TileGapESaIS1_EE17_M_realloc_insertIJRlS5_EEEvN9__gnu_cxx17__normal_iteratorIPS1_S3_EEDpOT_
080017c8 00000034 W _ZNSt6vectorIN13SpriteManager7TileGapESaIS1_EE12emplace_backIJRlS5_EEERS1_DpOT_
080017fc 00000020 W _ZSt4swapIN13SpriteManager7TileGapEENSt9enable_ifIXsrSt6__and_IJSt6__not_ISt15__is_tuple_likeIT_EESt21is_move_constructibleIS6_ESt18is_move_assignableIS6_EEE5valueEvE4typeERS6_SG_
0800181c 0000005e W _ZSt22__move_median_to_firstIN9__gnu_cxx17__normal_iteratorIPN13SpriteManager7TileGapESt6vectorIS3_SaIS3_EEEENS0_5__ops15_Iter_comp_iterIZNSt6ranges8__detail16__make_comp_projINSB_4lessEMS3_lEEDaRT_RT0_EUlOSG_OSI_E_EEEvSG_SG_SG_SG_SI_
0800187a 00000052 W _ZSt21__unguarded_partitionIN9__gnu_cxx17__normal_iteratorIPN13SpriteManager7TileGapESt6vectorIS3_SaIS3_EEEENS0_5__ops15_Iter_comp_iterIZNSt6ranges8__detail16__make_comp_projINSB_4lessEMS3_lEEDaRT_RT0_EUlOSG_OSI_E_EEESG_SG_SG_SG_SI_
080018cc 0000005c W _ZSt27__unguarded_partition_pivotIN9__gnu_cxx17__normal_iteratorIPN13SpriteManager7TileGapESt6vectorIS3_SaIS3_EEEENS0_5__ops15_Iter_comp_iterIZNSt6ranges8__detail16__make_comp_projINSB_4lessEMS3_lEEDaRT_RT0_EUlOSG_OSI_E_EEESG_SG_SG_SI_
08001928 00000058 W _ZSt11__push_heapIN9__gnu_cxx17__normal_iteratorIPN13SpriteManager7TileGapESt6vectorIS3_SaIS3_EEEEiS3_NS0_5__ops14_Iter_comp_valIZNSt6ranges8__detail16__make_comp_projINSB_4lessEMS3_lEEDaRT_RT0_EUlOSG_OSI_E_EEEvSG_SI_SI_T1_RT2_
08001980 00000096 W _ZSt13__adjust_heapIN9__gnu_cxx17__normal_iteratorIPN13SpriteManager7TileGapESt6vectorIS3_SaIS3_EEEEiS3_NS0_5__ops15_Iter_comp_iterIZNSt6ranges8__detail16__make_comp_projINSB_4lessEMS3_lEEDaRT_RT0_EUlOSG_OSI_E_EEEvSG_SI_SI_T1_T2_
08001a16 00000054 W _ZSt11__make_heapIN9__gnu_cxx17__normal_iteratorIPN13SpriteManager7TileGapESt6vectorIS3_SaIS3_EEEENS0_5__ops15_Iter_comp_iterIZNSt6ranges8__detail16__make_comp_projINSB_4lessEMS3_lEEDaRT_RT0_EUlOSG_OSI_E_EEEvSG_SG_SJ_
08001a6a 00000036 W _ZSt10__pop_heapIN9__gnu_cxx17__normal_iteratorIPN13SpriteManager7TileGapESt6vectorIS3_SaIS3_EEEENS0_5__ops15_Iter_comp_iterIZNSt6ranges8__detail16__make_comp_projINSB_4lessEMS3_lEEDaRT_RT0_EUlOSG_OSI_E_EEEvSG_SG_SG_SJ_
08001aa0 00000024 W _ZSt11__sort_heapIN9__gnu_cxx17__normal_iteratorIPN13SpriteManager7TileGapESt6vectorIS3_SaIS3_EEEENS0_5__ops15_Iter_comp_iterIZNSt6ranges8__detail16__make_comp_projINSB_4lessEMS3_lEEDaRT_RT0_EUlOSG_OSI_E_EEEvSG_SG_SJ_
08001ac4 00000050 W _ZSt13__heap_selectIN9__gnu_cxx17__normal_iteratorIPN13SpriteManager7TileGapESt6vectorIS3_SaIS3_EEEENS0_5__ops15_Iter_comp_iterIZNSt6ranges8__detail16__make_comp_projINSB_4lessEMS3_lEEDaRT_RT0_EUlOSG_OSI_E_EEEvSG_SG_SG_SI_
08001b14 0000002a W _ZSt14__partial_sortIN9__gnu_cxx17__normal_iteratorIPN13SpriteManager7TileGapESt6vectorIS3_SaIS3_EEEENS0_5__ops15_Iter_comp_iterIZNSt6ranges8__detail16__make_comp_projINSB_4lessEMS3_lEEDaRT_RT0_EUlOSG_OSI_E_EEEvSG_SG_SG_SI_
08001b3e 00000054 W _ZSt16__introsort_loopIN9__gnu_cxx17__normal_iteratorIPN13SpriteManager7TileGapESt6vectorIS3_SaIS3_EEEEiNS0_5__ops15_Iter_comp_iterIZNSt6ranges8__detail16__make_comp_projINSB_4lessEMS3_lEEDaRT_RT0_EUlOSG_OSI_E_EEEvSG_SG_SI_T1_
08001b92 00000034 W _ZNSt20__copy_move_backwardILb1ELb1ESt26random_access_iterator_tagE13__copy_move_bIN13SpriteManager7TileGapES4_EEPT0_PT_S8_S6_
08001bc6 0000000c W _ZSt22__copy_move_backward_aILb1EN9__gnu_cxx17__normal_iteratorIPN13SpriteManager7TileGapESt6vectorIS3_SaIS3_EEEES8_ET1_T0_SA_S9_
08001bd2 0000000c W _ZSt13move_backwardIN9__gnu_cxx17__normal_iteratorIPN13SpriteManager7TileGapESt6vectorIS3_SaIS3_EEEES8_ET0_T_SA_S9_
08001bde 00000078 W _ZSt16__insertion_sortIN9__gnu_cxx17__normal_iteratorIPN13SpriteManager7TileGapESt6vectorIS3_SaIS3_EEEENS0_5__ops15_Iter_comp_iterIZNSt6ranges8__detail16__make_comp_projINSB_4lessEMS3_lEEDaRT_RT0_EUlOSG_OSI_E_EEEvSG_SG_SI_
08001c56 0000003a W _ZSt22__final_insertion_sortIN9__gnu_cxx17__normal_iteratorIPN13SpriteManager7TileGapESt6vectorIS3_SaIS3_EEEENS0_5__ops15_Iter_comp_iterIZNSt6ranges8__detail16__make_comp_projINSB_4lessEMS3_lEEDaRT_RT0_EUlOSG_OSI_E_EEEvSG_SG_SI_
08001c90 00000046 W _ZSt6__sortIN9__gnu_cxx17__normal_iteratorIPN13SpriteManager7TileGapESt6vectorIS3_SaIS3_EEEENS0_5__ops15_Iter_comp_iterIZNSt6ranges8__detail16__make_comp_projINSB_4lessEMS3_lEEDaRT_RT0_EUlOSG_OSI_E_EEEvSG_SG_SI_
08001cd6 0000003c W _ZSt4sortIN9__gnu_cxx17__normal_iteratorIPN13SpriteManager7TileGapESt6vectorIS3_SaIS3_EEEEZNSt6ranges8__detail16__make_comp_projINS9_4lessEMS3_lEEDaRT_RT0_EUlOSE_OSG_E_EvSE_SE_SG_
08001d12 00000026 W _ZNKSt6ranges9__sort_fnclIN9__gnu_cxx17__normal_iteratorIPN13SpriteManager7TileGapESt6vectorIS5_SaIS5_EEEESA_NS_4lessEMS5_lEET_SD_T0_T1_T2_
08001d38 00000018 W _ZNKSt6ranges9__sort_fnclIRSt6vectorIN13SpriteManager7TileGapESaIS4_EENS_4lessEMS4_lEENSt13__conditionalIX14borrowed_rangeIT_EEE4typeIDTcl7__begincl7declvalIRSB_EEEENS_8danglingEEEOSB_T0_T1_
08001d50 0000000c T _ZdlPvj
08001d5c 00000046 T _Znwj
08001da4 00000020 T _ZSt17__throw_bad_allocv
08001dc4 00000020 T _ZSt28__throw_bad_array_new_lengthv
08001de4 00000030 T _ZSt19__throw_logic_errorPKc
08001e14 00000030 T _ZSt20__throw_length_errorPKc
08001e44 00000008 T _ZNKSt9bad_alloc4whatEv
08001e4c 00000018 T _ZNSt9bad_allocD1Ev
08001e4c 00000018 T _ZNSt9bad_allocD2Ev
08001e64 00000020 T _ZNSt9bad_allocD0Ev
08001e84 00000008 T _ZNKSt20bad_array_new_length4whatEv
08001e8c 00000018 T _ZNSt20bad_array_new_lengthD1Ev
08001e8c 00000018 T _ZNSt20bad_array_new_lengthD2Ev
08001ea4 00000020 T _ZNSt20bad_array_new_lengthD0Ev
08001ec4 0000000c T _ZdlPv
08001ed0 00000008 W _ZNK9__gnu_cxx24__concurrence_lock_error4whatEv
08001ed8 00000008 W _ZNK9__gnu_cxx26__concurrence_unlock_error4whatEv
08001ee0 00000018 W _ZN9__gnu_cxx24__concurrence_lock_errorD1Ev
08001ee0 00000018 W _ZN9__gnu_cxx24__concurrence_lock_errorD2Ev
08001ef8 00000020 W _ZN9__gnu_cxx24__concurrence_lock_errorD0Ev
08001f18 00000018 W _ZN9__gnu_cxx26__concurrence_unlock_errorD1Ev
08001f18 00000018 W _ZN9__gnu_cxx26__concurrence_unlock_errorD2Ev
08001f30 00000020 W _ZN9__gnu_cxx26__concurrence_unlock_errorD0Ev
08001f50 00000020 W _ZN9__gnu_cxx30__throw_concurrence_lock_errorEv
08001f70 00000020 W _ZN9__gnu_cxx32__throw_concurrence_unlock_errorEv
08001f90 000000a8 t _ZN12_GLOBAL__N_14pool4freeEPv.constprop.0
08002038 00000084 t _ZN12_GLOBAL__N_14pool8allocateEj.constprop.0
080020bc 00000030 T __cxa_allocate_exception
080020ec 00000028 T __cxa_free_exception
08002114 00000120 t _GLOBAL__sub_I__ZN9__gnu_cxx9__freeresEv
08002234 T __cxa_end_cleanup
08002240 000000cc T __cxa_type_match
0800230c 00000062 T __cxa_begin_cleanup
08002370 00000072 T __gnu_end_cleanup
080023e4 00000002 T _ZNSt9exceptionD1Ev
080023e4 00000002 T _ZNSt9exceptionD2Ev
080023e8 00000002 T _ZNSt13bad_exceptionD1Ev
080023e8 00000002 T _ZNSt13bad_exceptionD2Ev
080023ec 00000008 T _ZGTtNKSt9exception4whatEv
080023ec 00000008 T _ZNKSt9exception4whatEv
080023f4 00000008 T _ZGTtNKSt13bad_exception4whatEv
080023f4 00000008 T _ZNKSt13bad_exception4whatEv
080023fc 00000012 T _ZNSt13bad_exceptionD0Ev
08002410 00000026 t _ZL15eh_globals_dtorPv
08002438 00000028 T __cxa_get_globals_fast
08002460 00000050 T __cxa_get_globals
080024b0 00000030 t _GLOBAL__sub_I__ZN17__eh_globals_init7_S_initE
080024e0 00000028 t _GLOBAL__sub_D__ZN17__eh_globals_init7_S_initE
08002508 00000104 t _ZL28read_encoded_value_with_basehjPKhPj
0800260c 00000044 t _ZL21base_of_encoded_valuehP15_Unwind_Context
08002650 00000094 t _ZL17parse_lsda_headerP15_Unwind_ContextPKhP16lsda_header_info
080026e4 00000490 T __gxx_personality_v0
08002b74 00000014 T _ZN10__cxxabiv111__terminateEPFvvE
08002b88 00000040 T _ZSt13get_terminatev
08002bc8 0000000a T _ZSt9terminatev
08002bd4 0000000c T _ZN10__cxxabiv112__unexpectedEPFvvE
08002be0 00000040 T _ZSt14get_unexpectedv
08002c20 0000000a T _ZSt10unexpectedv
08002c2c 00000018 t _GLOBAL__sub_I__ZN10__cxxabiv111__terminateEPFvvE
08002c44 00000056 t _ZL23__gxx_exception_cleanup19_Unwind_Reason_CodeP21_Unwind_Control_Block
08002c9c 00000050 T __cxa_init_primary_exception
08002cec 00000034 T __cxa_throw
08002d20 00000070 T __cxa_rethrow
08002d90 00000040 T _ZSt15get_new_handlerv
08002dd0 00000018 t _GLOBAL__sub_I__ZSt7nothrow
08002de8 00000018 T _ZN10__cxxabiv120__si_class_type_infoD1Ev
08002de8 00000018 T _ZN10__cxxabiv120__si_class_type_infoD2Ev
08002e00 00000020 T _ZN10__cxxabiv120__si_class_type_infoD0Ev
08002e20 000000d6 T _ZNK10__cxxabiv120__si_class_type_info12__do_dyncastEiNS_17__class_type_info10__sub_kindEPKS1_PKvS4_S6_RNS1_16__dyncast_resultE
08002ef8 0000005a T _ZNK10__cxxabiv120__si_class_type_info20__do_find_public_srcEiPKvPKNS_17__class_type_infoES2_
08002f54 0000002a T _ZNK10__cxxabiv120__si_class_type_info11__do_upcastEPKNS_17__class_type_infoEPKvRNS1_15__upcast_resultE
08002f80 00000002 T _ZNSt9type_infoD1Ev
08002f80 00000002 T _ZNSt9type_infoD2Ev
08002f84 00000004 T _ZNKSt9type_info14__is_pointer_pEv
08002f84 00000004 T _ZNKSt9type_info15__is_function_pEv
08002f88 00000004 T _ZNKSt11logic_error4whatEv
08002f88 00000004 T _ZNKSt13runtime_error4whatEv
08002f8c 0000005c T _ZNSt11logic_errorD1Ev
08002f8c 0000005c T _ZNSt11logic_errorD2Ev
08002fe8 0000005c T _ZNSt12length_errorD1Ev
08002fe8 0000005c T _ZNSt12length_errorD2Ev
08003044 00000060 T _ZNSt11logic_errorD0Ev
080030a4 00000060 T _ZNSt12length_errorD0Ev
08003104 0000008c T _ZNSt11logic_errorC1EPKc
08003104 0000008c T _ZNSt11logic_errorC2EPKc
08003190 00000018 T _ZNSt12length_errorC1EPKc
08003190 00000018 T _ZNSt12length_errorC2EPKc
080031a8 00000060 W _ZNSs4_Rep9_S_createEjjRKSaIcE
08003208 0000000c W _ZNSs4_Rep10_M_destroyERKSaIcE
08003214 0000009c T _ZN9__gnu_cxx18__exchange_and_addEPVii
080032b0 0000003c T _ZNK10__cxxabiv117__class_type_info11__do_upcastEPKS0_PPv
080032ec 00000012 T _ZNK10__cxxabiv117__class_type_info20__do_find_public_srcEiPKvPKS0_S2_
08003300 00000018 T _ZN10__cxxabiv117__class_type_infoD1Ev
08003300 00000018 T _ZN10__cxxabiv117__class_type_infoD2Ev
08003318 00000020 T _ZN10__cxxabiv117__class_type_infoD0Ev
08003338 0000003c T _ZNK10__cxxabiv117__class_type_info11__do_upcastEPKS0_PKvRNS0_15__upcast_resultE
08003374 00000052 T _ZNK10__cxxabiv117__class_type_info10__do_catchEPKSt9type_infoPPvj
080033c8 0000007e T _ZNK10__cxxabiv117__class_type_info12__do_dyncastEiNS0_10__sub_kindEPKS0_PKvS3_S5_RNS0_16__dyncast_resultE
08003448 0000003a t _ZN10__cxxabiv1L24__is_gxx_exception_classEPc
08003484 00000020 T __cxa_call_terminate
080034a4 00000102 T __cxa_call_unexpected
080035a8 00000078 T __cxa_begin_catch
08003620 00000092 T __cxa_end_catch
080036b4 00000008 W _ZNK9__gnu_cxx29__concurrence_broadcast_error4whatEv
080036bc 00000008 W _ZNK9__gnu_cxx24__concurrence_wait_error4whatEv
080036c4 00000020 t _ZN12_GLOBAL__N_1L4initEv
080036e4 00000018 t _ZN12_GLOBAL__N_1L16init_static_condEv
080036fc 00000018 W _ZN9__gnu_cxx24__concurrence_wait_errorD1Ev
080036fc 00000018 W _ZN9__gnu_cxx24__concurrence_wait_errorD2Ev
08003714 00000020 W _ZN9__gnu_cxx24__concurrence_wait_errorD0Ev
08003734 00000018 W _ZN9__gnu_cxx29__concurrence_broadcast_errorD1Ev
08003734 00000018 W _ZN9__gnu_cxx29__concurrence_broadcast_errorD2Ev
0800374c 00000020 W _ZN9__gnu_cxx29__concurrence_broadcast_errorD0Ev
0800376c 00000020 W _ZN9__gnu_cxx35__throw_concurrence_broadcast_errorEv
0800378c 0000012c T __cxa_guard_acquire
080038b8 00000080 T __cxa_guard_release
08003938 00000018 T _ZN9__gnu_cxx20recursive_init_errorD1Ev
08003938 00000018 T _ZN9__gnu_cxx20recursive_init_errorD2Ev
08003950 00000020 T _ZN9__gnu_cxx20recursive_init_errorD0Ev
08003970 0000000c T _ZN9__gnu_cxx20recursive_init_errorC1Ev
08003970 0000000c T _ZN9__gnu_cxx20recursive_init_errorC2Ev
0800397c t .udivsi3_skip_div0_test
0800397c T __aeabi_uidiv
0800397c 000000fc T __udivsi3
08003a78 00000020 T __aeabi_uidivmod
08003a98 T __aeabi_idiv
08003a98 00000130 T __divsi3
08003aa0 t .divsi3_skip_div0_test
08003bc8 00000020 T __aeabi_idivmod
08003be8 00000002 W __aeabi_idiv0
08003be8 00000002 W __aeabi_ldiv0
08003bec 00000048 T __clzsi2
08003c34 00000016 t selfrel_offset31
08003c4c 00000072 t search_EIT_table
08003cc0 00000028 t __gnu_unwind_get_pr_addr
08003ce8 00000098 t get_eit_entry
08003d80 0000005e t restore_non_core_regs
08003de0 0000000c t _Unwind_decode_typeinfo_ptr.constprop.0
08003dec 00000002 t _Unwind_DebugHook
08003df0 0000003e t unwind_phase2
08003e30 000000d8 t unwind_phase2_forced
08003f08 00000058 T __gnu_Unwind_RaiseException
08003f60 00000018 T __gnu_Unwind_ForcedUnwind
08003f78 0000004a T __gnu_Unwind_Resume
08003fc4 0000001e T __gnu_Unwind_Resume_or_Rethrow
08003fe4 00000002 T _Unwind_Complete
08003fe8 00000018 T _Unwind_DeleteException
08004000 00000042 T _Unwind_VRS_Get
08004044 0000001a t _Unwind_GetGR
08004060 00000042 T _Unwind_VRS_Set
080040a4 0000001a t _Unwind_SetGR
080040c0 00000078 T __gnu_Unwind_Backtrace
08004138 000002e8 t __gnu_unwind_pr_common
08004420 0000000e T __aeabi_unwind_cpp_pr0
08004430 0000000e W __aeabi_unwind_cpp_pr1
08004440 0000000e W __aeabi_unwind_cpp_pr2
08004450 000002b4 T _Unwind_VRS_Pop
08004704 0000001c T __restore_core_regs
08004704 0000001c T restore_core_regs
08004720 T __gnu_Unwind_Restore_VFP
08004728 T __gnu_Unwind_Save_VFP
08004730 T __gnu_Unwind_Restore_VFP_D
08004738 T __gnu_Unwind_Save_VFP_D
08004740 T __gnu_Unwind_Restore_VFP_D_16_to_31
08004748 T __gnu_Unwind_Save_VFP_D_16_to_31
08004750 T __gnu_Unwind_Restore_WMMXD
08004794 T __gnu_Unwind_Save_WMMXD
080047d8 T __gnu_Unwind_Restore_WMMXC
080047ec T __gnu_Unwind_Save_WMMXC
08004800 0000002a T ___Unwind_RaiseException
08004800 0000002a T _Unwind_RaiseException
0800482c 0000002a T ___Unwind_Resume
0800482c 0000002a T _Unwind_Resume
08004858 0000002a T ___Unwind_Resume_or_Rethrow
08004858 0000002a T _Unwind_Resume_or_Rethrow
08004884 0000002a T ___Unwind_ForcedUnwind
08004884 0000002a T _Unwind_ForcedUnwind
080048b0 0000002a T ___Unwind_Backtrace
080048b0 0000002a T _Unwind_Backtrace
080048dc 00000032 t next_unwind_byte
08004910 0000001a t _Unwind_GetGR.constprop.0
0800492c 0000000c t unwind_UCB_from_context
08004938 00000310 T __gnu_unwind_execute
08004c48 0000002a T __gnu_unwind_frame
08004c74 0000000e T _Unwind_GetRegionStart
08004c84 00000016 T _Unwind_GetLanguageSpecificData
08004c9c 00000006 T _Unwind_GetDataRelBase
08004ca2 00000006 T _Unwind_GetTextRelBase
08004ca8 0000000e T abort
08004cb8 00000040 T __assert_func
08004cf8 00000026 T fiprintf
08004d20 000000c8 T strchr
08004de8 0000004a T memcmp
08004e34 00000014 T malloc
08004e48 00000014 T free
08004e5c 00000558 T _malloc_r
080053b4 0000001a T getenv
080053d0 000000bc T memmove
0800548c 00000094 T _findenv_r
08005520 000000ae T memset
080055d0 00000014 T __malloc_lock
080055e4 00000014 T __malloc_unlock
080055f8 0000005e T _raise_r
08005658 00000014 T raise
0800566c 00000060 T strlen
080056cc 00000078 T strncmp
08005744 00000144 t _strtoul_l.isra.0
08005888 00000024 T strtoul
080058ac 00000224 T strcmp
08005ad0 00000078 T memchr
08005b48 00000090 T memcpy
08005bd8 00000002 W __sync_synchronize
08005bdc 00000052 T __libc_init_array
08005c30 00000014 T __env_lock
08005c44 00000014 T __env_unlock
08005c58 00000434 t get_arg
0800608c 00000024 T __sprint_r
080060b0 000017ca T _vfiprintf_r
0800787c 0000007c t __sbprintf
080078f8 000000ac T _malloc_trim_r
080079a4 000001d8 T _free_r
08007b7c 000000ca T __swsetup_r
08007c48 00000186 T __sflush_r
08007dd0 0000006e T _fflush_r
08007e40 0000032e T __sfvwrite_r
08008170 0000004c T _fwalk_sglue
080081bc 00000384 T _realloc_r
08008540 00000068 T strncpy
080085a8 00000020 t stdio_exit_handler
080085c8 00000040 t cleanup_stdio
08008608 00000128 t global_stdio_init.part.0
08008730 0000003c T __sinit
0800876c 00000014 T __sfp_lock_acquire
08008780 00000014 T __sfp_lock_release
08008794 00000020 T __locale_mb_cur_max
080087b4 0000001c T _localeconv_r
080087d0 000000b4 T __utf8_wctomb
08008884 000000e8 T __smakebuf_r
0800896c 00000084 T _wcrtomb_r
080089f0 0000001a T _wcsrtombs_r
08008a0c 00000034 T __sread
08008a40 0000004c T __swrite
08008a8c 00000044 T __sseek
08008ad0 00000010 T __sclose
08008ae0 000000d6 T _fclose_r
08008bb8 0000027c T __utf8_mbtowc
08008e34 0000011a T _wcsnrtombs_l
08008f50 00000040 T _wcsnrtombs_r
08008f90 00000014 T _exit
08008fa4 0000004a T _fstat_r
08008ff0 0000000a T _getpid_r
08008ffc 00000020 T __getreent
0800901c 00000034 T __get_handle
08009050 000000b6 T _close_r
08009108 00000004 t null_write
0800910c 00000004 T _isatty_r
08009110 0000000a T _kill_r
0800911c 0000005a T _lseek_r
08009178 0000004e T _read_r
080091c8 00000054 W _sbrk_r
0800921c 00000018 T __libc_lock_acquire
08009234 00000018 T __libc_lock_release
0800924c 00000018 T __libc_lock_acquire_recursive
08009264 00000018 T __libc_lock_release_recursive
0800927c 0000004e T _write_r
080092cc 00000012 T __gnu_thumb1_case_uqi
080092e0 00000014 T __gnu_thumb1_case_uhi
080092f4 T __aeabi_uldivmod
08009330 0000019c T __udivmoddi4
080094cc 00000028 T __clzdi2
080094f8 00000008 t ____gnu_Unwind_Save_WMMXD_from_thumb
08009500 00000008 t ____gnu_Unwind_Restore_VFP_D_from_thumb
08009508 00000008 t ____clzdi2_from_thumb
08009510 00000008 t ____clzsi2_from_thumb
08009518 0000000c t ____aeabi_idiv0_from_arm
08009524 00000008 t ____aeabi_uidivmod_from_thumb
0800952c 0000000c t ____udivmoddi4_from_arm
08009538 00000008 t ____aeabi_uidiv_from_thumb
08009540 00000008 t ____gnu_Unwind_Restore_VFP_from_thumb
08009548 00000008 t ____gnu_Unwind_Save_VFP_D_16_to_31_from_thumb
08009550 00000008 t __restore_core_regs_from_thumb
08009558 00000008 t ____gnu_Unwind_Restore_VFP_D_16_to_31_from_thumb
08009560 00000008 t ____aeabi_uldivmod_from_thumb
08009568 00000008 t __strcmp_from_thumb
08009570 0000000c t ____aeabi_ldiv0_from_arm
0800957c 00000008 t ____gnu_Unwind_Save_VFP_D_from_thumb
08009584 00000008 t ____gnu_Unwind_Save_WMMXC_from_thumb
0800958c 00000008 t ___Unwind_RaiseException_from_thumb
08009594 00000008 t ____gnu_Unwind_Restore_WMMXC_from_thumb
0800959c 00000008 t ___Unwind_Resume_from_thumb
080095a4 00000008 t ___Unwind_Resume_or_Rethrow_from_thumb
080095ac 00000008 t ____aeabi_idiv_from_thumb
080095b4 00000008 t ____gnu_Unwind_Save_VFP_from_thumb
080095bc 00000008 t ____gnu_Unwind_Restore_WMMXD_from_thumb
080095c4 00000008 t ____aeabi_idivmod_from_thumb
080095d8 T __text_end
080095d8 T _fini
08009958 0000000c V MetroidBoxTileAsset
08009964 00000800 V MetroidBoxTiles
0800a164 0000000c V MetroidTileAsset
0800a170 00000800 V MetroidTiles
0800a970 00000024 V MetroidPaletteAsset
0800a994 00000001 V _ZNSt6ranges4sortE
0800a998 00000001 V _ZNSt6ranges7find_ifE
0800a99c 00000001 V _ZNSt6ranges4findE
0800a9a0 00000001 V _ZNSt6ranges4copyE
0800a9a4 0000000d R _ZTSSt9bad_alloc
0800a9b4 0000000c R _ZTISt9bad_alloc
0800a9c0 00000014 R _ZTVSt9bad_alloc
0800a9d4 00000019 R _ZTSSt20bad_array_new_length
0800a9f0 0000000c R _ZTISt20bad_array_new_length
0800a9fc 00000014 R _ZTVSt20bad_array_new_length
0800aa10 00000027 V _ZTSN9__gnu_cxx24__concurrence_lock_errorE
0800aa38 0000000c V _ZTIN9__gnu_cxx24__concurrence_lock_errorE
0800aa44 00000029 V _ZTSN9__gnu_cxx26__concurrence_unlock_errorE
0800aa70 0000000c V _ZTIN9__gnu_cxx26__concurrence_unlock_errorE
0800aa7c 00000014 V _ZTVN9__gnu_cxx24__concurrence_lock_errorE
0800aa90 00000014 V _ZTVN9__gnu_cxx26__concurrence_unlock_errorE
0800aaa4 0000000d R _ZTSSt9exception
0800aab4 00000008 R _ZTISt9exception
0800aabc 00000012 R _ZTSSt13bad_exception
0800aad0 0000000c R _ZTISt13bad_exception
0800aadc 00000020 R _ZTSN10__cxxabiv115__forced_unwindE
0800aafc 00000008 R _ZTIN10__cxxabiv115__forced_unwindE
0800ab04 00000024 R _ZTSN10__cxxabiv119__foreign_exceptionE
0800ab28 00000008 R _ZTIN10__cxxabiv119__foreign_exceptionE
0800ab30 00000014 R _ZTVSt13bad_exception
0800ab78 00000025 R _ZTSN10__cxxabiv120__si_class_type_infoE
0800aba0 0000000c R _ZTIN10__cxxabiv120__si_class_type_infoE
0800abac 0000002c R _ZTVN10__cxxabiv120__si_class_type_infoE
0800abd8 0000000d R _ZTSSt9type_info
0800abe8 00000008 R _ZTISt9type_info
0800abf0 00000010 R _ZTSSt11logic_error
0800ac00 0000000c R _ZTISt11logic_error
0800ac0c 00000011 R _ZTSSt12length_error
0800ac20 0000000c R _ZTISt12length_error
0800ac2c 00000014 R _ZTVSt11logic_error
0800ac40 00000014 R _ZTVSt12length_error
0800ac54 00000022 R _ZTSN10__cxxabiv117__class_type_infoE
0800ac78 0000000c R _ZTIN10__cxxabiv117__class_type_infoE
0800ac84 0000002c R _ZTVN10__cxxabiv117__class_type_infoE
0800acb0 0000002c V _ZTSN9__gnu_cxx29__concurrence_broadcast_errorE
0800acdc 0000000c V _ZTIN9__gnu_cxx29__concurrence_broadcast_errorE
0800ace8 00000027 V _ZTSN9__gnu_cxx24__concurrence_wait_errorE
0800ad10 0000000c V _ZTIN9__gnu_cxx24__concurrence_wait_errorE
0800ad1c 00000014 V _ZTVN9__gnu_cxx29__concurrence_broadcast_errorE
0800ad30 00000014 V _ZTVN9__gnu_cxx24__concurrence_wait_errorE
0800ad44 00000023 R _ZTSN9__gnu_cxx20recursive_init_errorE
0800ad68 0000000c R _ZTIN9__gnu_cxx20recursive_init_errorE
0800ad74 00000014 R _ZTVN9__gnu_cxx20recursive_init_errorE
0800adb4 00000101 R _ctype_
0800aee0 00000010 r zeroes.0
0800aef0 00000010 r blanks.1
0800af00 0000006c R __action_table
0800af6c 0000006c R __state_table
0800afd8 00000100 R __chclass
0800b0d8 00000080 R dotab_stdnull
0800b2f8 R __exidx_start
0800b558 r __EH_FRAME_BEGIN__
0800b558 R __exidx_end
0800b558 r __FRAME_END__
0800b55c A __data_lma
0800b55c R __iwram_lma
0800ccc8 A __init_lma
0800ccc8 A __preinit_lma
0800ccdc A __fini_lma
0800cce4 A __ewram_lma
0800cce4 A __iwram_overlay_lma
0800cce4 A __jcr_lma
0800cce4 A __load_start_iwram0
0800cce4 A __load_stop_iwram0
0800cce4 A __pad_lma
0800ccec A __rom_end__
